target datalayout = "e-m:e-p270:32:32-p271:32:32-p272:64:64-i64:64-i128:128-f80:128-n8:16:32:64-S128"
target triple = "x86_64-pc-linux-gnu"

%struct.AVFilterLink = type { ptr, ptr, ptr, ptr, i32, i32, i32, i32, %struct.AVRational, i32, i32, i32, %struct.AVChannelLayout, %struct.AVRational, ptr, i32, %struct.AVFilterFormatsConfig, %struct.AVFilterFormatsConfig }
%struct.AVChannelLayout = type { i32, i32, %union.anon, ptr }
%union.anon = type { i64 }
%struct.AVRational = type { i32, i32 }
%struct.AVFilterFormatsConfig = type { ptr, ptr, ptr, ptr, ptr }
%struct.AVFilterContext = type { ptr, ptr, ptr, ptr, ptr, i32, ptr, ptr, i32, ptr, ptr, i32, i32, ptr, ptr, ptr, ptr, i32, ptr, i32, i32 }
%struct.YADIFContext = type { ptr, i32, i32, i32, i32, ptr, ptr, ptr, ptr, ptr, ptr, ptr, ptr, i32, ptr, i32, %struct.CCFifo, i32, i32 }
%struct.CCFifo = type { ptr, ptr, %struct.AVRational, i32, i32, i32, i32, i32, ptr }
%struct.AVFrame = type { [8 x ptr], [8 x i32], ptr, i32, i32, i32, i32, i32, %struct.AVRational, i64, i64, %struct.AVRational, i32, ptr, i32, i32, [8 x ptr], ptr, i32, ptr, i32, i32, i32, i32, i32, i32, i32, i64, ptr, i32, ptr, ptr, i64, i64, i64, i64, ptr, %struct.AVChannelLayout, i64 }

; Function Attrs: nounwind uwtable
define i32 @ff_yadif_request_frame(ptr noundef %0) #0 {
  %2 = alloca i32, align 4
  %3 = alloca ptr, align 8
  %4 = alloca ptr, align 8
  %5 = alloca ptr, align 8
  %6 = alloca i32, align 4
  %7 = alloca i32, align 4
  %8 = alloca ptr, align 8
  store ptr %0, ptr %3, align 8, !tbaa !4
  call void @llvm.lifetime.start.p0(i64 8, ptr %4) #7
  %9 = load ptr, ptr %3, align 8, !tbaa !4
  %10 = getelementptr inbounds nuw %struct.AVFilterLink, ptr %9, i32 0, i32 0
  %11 = load ptr, ptr %10, align 8, !tbaa !74
  store ptr %11, ptr %4, align 8, !tbaa !23
  call void @llvm.lifetime.start.p0(i64 8, ptr %5) #7
  %12 = load ptr, ptr %4, align 8, !tbaa !23
  %13 = getelementptr inbounds nuw %struct.AVFilterContext, ptr %12, i32 0, i32 9
  %14 = load ptr, ptr %13, align 8, !tbaa !24
  store ptr %14, ptr %5, align 8, !tbaa !34
  call void @llvm.lifetime.start.p0(i64 4, ptr %6) #7
  %15 = load ptr, ptr %5, align 8, !tbaa !34
  %16 = getelementptr inbounds nuw %struct.YADIFContext, ptr %15, i32 0, i32 4
  %17 = load i32, ptr %16, align 4, !tbaa !36
  %18 = icmp ne i32 %17, 0
  br i1 %18, label %19, label %22

19:                                               ; preds = %1
  %20 = load ptr, ptr %4, align 8, !tbaa !23
  %21 = call i32 @return_frame(ptr noundef %20, i32 noundef 1)
  store i32 0, ptr %2, align 4
  store i32 1, ptr %7, align 4
  br label %86

22:                                               ; preds = %1
  %23 = load ptr, ptr %5, align 8, !tbaa !34
  %24 = getelementptr inbounds nuw %struct.YADIFContext, ptr %23, i32 0, i32 13
  %25 = load i32, ptr %24, align 8, !tbaa !75
  %26 = icmp ne i32 %25, 0
  br i1 %26, label %27, label %28

27:                                               ; preds = %22
  store i32 -541478725, ptr %2, align 4
  store i32 1, ptr %7, align 4
  br label %86

28:                                               ; preds = %22
  %29 = load ptr, ptr %4, align 8, !tbaa !23
  %30 = getelementptr inbounds nuw %struct.AVFilterContext, ptr %29, i32 0, i32 4
  %31 = load ptr, ptr %30, align 8, !tbaa !76
  %32 = getelementptr inbounds ptr, ptr %31, i64 0
  %33 = load ptr, ptr %32, align 8, !tbaa !4
  %34 = call i32 @ff_request_frame(ptr noundef %33)
  store i32 %34, ptr %6, align 4, !tbaa !62
  %35 = load i32, ptr %6, align 4, !tbaa !62
  %36 = icmp eq i32 %35, -541478725
  br i1 %36, label %37, label %79

37:                                               ; preds = %28
  %38 = load ptr, ptr %5, align 8, !tbaa !34
  %39 = getelementptr inbounds nuw %struct.YADIFContext, ptr %38, i32 0, i32 5
  %40 = load ptr, ptr %39, align 8, !tbaa !42
  %41 = icmp ne ptr %40, null
  br i1 %41, label %42, label %79

42:                                               ; preds = %37
  call void @llvm.lifetime.start.p0(i64 8, ptr %8) #7
  %43 = load ptr, ptr %5, align 8, !tbaa !34
  %44 = getelementptr inbounds nuw %struct.YADIFContext, ptr %43, i32 0, i32 6
  %45 = load ptr, ptr %44, align 8, !tbaa !43
  %46 = call ptr @av_frame_clone(ptr noundef %45)
  store ptr %46, ptr %8, align 8, !tbaa !9
  %47 = load ptr, ptr %8, align 8, !tbaa !9
  %48 = icmp ne ptr %47, null
  br i1 %48, label %50, label %49

49:                                               ; preds = %42
  store i32 -12, ptr %2, align 4
  store i32 1, ptr %7, align 4
  br label %76

50:                                               ; preds = %42
  %51 = load ptr, ptr %5, align 8, !tbaa !34
  %52 = getelementptr inbounds nuw %struct.YADIFContext, ptr %51, i32 0, i32 17
  store i32 -1, ptr %52, align 8, !tbaa !44
  %53 = load ptr, ptr %5, align 8, !tbaa !34
  %54 = getelementptr inbounds nuw %struct.YADIFContext, ptr %53, i32 0, i32 6
  %55 = load ptr, ptr %54, align 8, !tbaa !43
  %56 = getelementptr inbounds nuw %struct.AVFrame, ptr %55, i32 0, i32 9
  %57 = load i64, ptr %56, align 8, !tbaa !55
  %58 = mul nsw i64 %57, 2
  %59 = load ptr, ptr %5, align 8, !tbaa !34
  %60 = getelementptr inbounds nuw %struct.YADIFContext, ptr %59, i32 0, i32 5
  %61 = load ptr, ptr %60, align 8, !tbaa !42
  %62 = getelementptr inbounds nuw %struct.AVFrame, ptr %61, i32 0, i32 9
  %63 = load i64, ptr %62, align 8, !tbaa !55
  %64 = sub nsw i64 %58, %63
  %65 = load ptr, ptr %8, align 8, !tbaa !9
  %66 = getelementptr inbounds nuw %struct.AVFrame, ptr %65, i32 0, i32 9
  store i64 %64, ptr %66, align 8, !tbaa !55
  %67 = load ptr, ptr %4, align 8, !tbaa !23
  %68 = getelementptr inbounds nuw %struct.AVFilterContext, ptr %67, i32 0, i32 4
  %69 = load ptr, ptr %68, align 8, !tbaa !76
  %70 = getelementptr inbounds ptr, ptr %69, i64 0
  %71 = load ptr, ptr %70, align 8, !tbaa !4
  %72 = load ptr, ptr %8, align 8, !tbaa !9
  %73 = call i32 @ff_yadif_filter_frame(ptr noundef %71, ptr noundef %72)
  %74 = load ptr, ptr %5, align 8, !tbaa !34
  %75 = getelementptr inbounds nuw %struct.YADIFContext, ptr %74, i32 0, i32 13
  store i32 1, ptr %75, align 8, !tbaa !75
  store i32 0, ptr %7, align 4
  br label %76

76:                                               ; preds = %50, %49
  call void @llvm.lifetime.end.p0(i64 8, ptr %8) #7
  %77 = load i32, ptr %7, align 4
  switch i32 %77, label %86 [
    i32 0, label %78
  ]

78:                                               ; preds = %76
  br label %85

79:                                               ; preds = %37, %28
  %80 = load i32, ptr %6, align 4, !tbaa !62
  %81 = icmp slt i32 %80, 0
  br i1 %81, label %82, label %84

82:                                               ; preds = %79
  %83 = load i32, ptr %6, align 4, !tbaa !62
  store i32 %83, ptr %2, align 4
  store i32 1, ptr %7, align 4
  br label %86

84:                                               ; preds = %79
  br label %85

85:                                               ; preds = %84, %78
  store i32 0, ptr %2, align 4
  store i32 1, ptr %7, align 4
  br label %86

86:                                               ; preds = %85, %82, %76, %27, %19
  call void @llvm.lifetime.end.p0(i64 4, ptr %6) #7
  call void @llvm.lifetime.end.p0(i64 8, ptr %5) #7
  call void @llvm.lifetime.end.p0(i64 8, ptr %4) #7
  %87 = load i32, ptr %2, align 4
  ret i32 %87
}