; Function Attrs: nounwind uwtable
define range(i32 -2147483648, 1) i32 @ff_yadif_request_frame(ptr noundef readonly captures(none) %0) local_unnamed_addr #0 {
  %2 = load ptr, ptr %0, align 8, !tbaa !70
  %3 = getelementptr inbounds nuw i8, ptr %2, i64 72
  %4 = load ptr, ptr %3, align 8, !tbaa !19
  %5 = getelementptr inbounds nuw i8, ptr %4, i64 20
  %6 = load i32, ptr %5, align 4, !tbaa !29
  %.not = icmp eq i32 %6, 0
  br i1 %.not, label %9, label %7

7:                                                ; preds = %1
  %8 = tail call fastcc i32 @return_frame(ptr noundef nonnull %2, i32 noundef 1)
  br label %.critedge

9:                                                ; preds = %1
  %10 = getelementptr inbounds nuw i8, ptr %4, i64 88
  %11 = load i32, ptr %10, align 8, !tbaa !71
  %.not23 = icmp eq i32 %11, 0
  br i1 %.not23, label %12, label %.critedge

12:                                               ; preds = %9
  %13 = getelementptr inbounds nuw i8, ptr %2, i64 32
  %14 = load ptr, ptr %13, align 8, !tbaa !72
  %15 = load ptr, ptr %14, align 8, !tbaa !59
  %16 = tail call i32 @ff_request_frame(ptr noundef %15) #5
  %17 = icmp eq i32 %16, -541478725
  br i1 %17, label %18, label %39

18:                                               ; preds = %12
  %19 = getelementptr inbounds nuw i8, ptr %4, i64 24
  %20 = load ptr, ptr %19, align 8, !tbaa !36
  %.not24 = icmp eq ptr %20, null
  br i1 %.not24, label %.critedge, label %21

21:                                               ; preds = %18
  %22 = getelementptr inbounds nuw i8, ptr %4, i64 32
  %23 = load ptr, ptr %22, align 8, !tbaa !37
  %24 = tail call ptr @av_frame_clone(ptr noundef %23) #5
  %.not25.not = icmp eq ptr %24, null
  br i1 %.not25.not, label %.critedge, label %25

25:                                               ; preds = %21
  %26 = getelementptr inbounds nuw i8, ptr %4, i64 168
  store i32 -1, ptr %26, align 8, !tbaa !38
  %27 = load ptr, ptr %22, align 8, !tbaa !37
  %28 = getelementptr inbounds nuw i8, ptr %27, i64 136
  %29 = load i64, ptr %28, align 8, !tbaa !55
  %30 = shl nsw i64 %29, 1
  %31 = load ptr, ptr %19, align 8, !tbaa !36
  %32 = getelementptr inbounds nuw i8, ptr %31, i64 136
  %33 = load i64, ptr %32, align 8, !tbaa !55
  %34 = sub nsw i64 %30, %33
  %35 = getelementptr inbounds nuw i8, ptr %24, i64 136
  store i64 %34, ptr %35, align 8, !tbaa !55
  %36 = load ptr, ptr %13, align 8, !tbaa !72
  %37 = load ptr, ptr %36, align 8, !tbaa !59
  %38 = tail call i32 @ff_yadif_filter_frame(ptr noundef %37, ptr noundef nonnull %24)
  store i32 1, ptr %10, align 8, !tbaa !71
  br label %41

39:                                               ; preds = %12
  %40 = icmp slt i32 %16, 0
  br i1 %40, label %.critedge, label %41

41:                                               ; preds = %25, %39
  br label %.critedge

.critedge:                                        ; preds = %18, %21, %39, %9, %41, %7
  %.0 = phi i32 [ 0, %7 ], [ 0, %41 ], [ -541478725, %9 ], [ %16, %39 ], [ -12, %21 ], [ -541478725, %18 ]
  ret i32 %.0
}